target datalayout = "e-m:e-p270:32:32-p271:32:32-p272:64:64-i64:64-i128:128-f80:128-n8:16:32:64-S128"
target triple = "x86_64-pc-linux-gnu"

%"struct.llvm::EVT" = type { %"class.llvm::MVT", ptr }
%"class.llvm::MVT" = type { i16 }
%"class.llvm::SDNode" = type { %"class.llvm::FoldingSetBase::Node", %"class.llvm::ilist_node", i32, %"struct.llvm::SDNodeFlags", %union.anon, i16, i32, ptr, ptr, ptr, i16, i16, i32, %"class.llvm::DebugLoc", i32, i32 }
%"class.llvm::FoldingSetBase::Node" = type { ptr }
%"class.llvm::ilist_node" = type { %"class.llvm::ilist_node_impl" }
%"class.llvm::ilist_node_impl" = type { %"class.llvm::ilist_node_base" }
%"class.llvm::ilist_node_base" = type { %"class.llvm::ilist_detail::node_base_prevnext" }
%"class.llvm::ilist_detail::node_base_prevnext" = type { ptr, ptr }
%"struct.llvm::SDNodeFlags" = type { i16 }
%union.anon = type { %"class.llvm::SDNode::LSBaseSDNodeBitfields" }
%"class.llvm::SDNode::LSBaseSDNodeBitfields" = type { i16 }
%"class.llvm::DebugLoc" = type { %"class.llvm::TypedTrackingMDRef" }
%"class.llvm::TypedTrackingMDRef" = type { %"class.llvm::TrackingMDRef" }
%"class.llvm::TrackingMDRef" = type { ptr }

; Function Attrs: mustprogress nounwind uwtable
define linkonce_odr hidden noundef zeroext i1 @_ZNK4llvm3EVTneES0_(ptr noundef nonnull align 8 dereferenceable(16) %0, i16 %1, ptr %2) #0 comdat align 2 {
  %4 = alloca i1, align 1
  %5 = alloca %"struct.llvm::EVT", align 8
  %6 = alloca ptr, align 8
  %7 = getelementptr inbounds nuw { i16, ptr }, ptr %5, i32 0, i32 0
  store i16 %1, ptr %7, align 8
  %8 = getelementptr inbounds nuw { i16, ptr }, ptr %5, i32 0, i32 1
  store ptr %2, ptr %8, align 8
  store ptr %0, ptr %6, align 8
  %9 = load ptr, ptr %6, align 8
  %10 = getelementptr inbounds nuw %"struct.llvm::EVT", ptr %9, i32 0, i32 0
  %11 = getelementptr inbounds nuw %"class.llvm::MVT", ptr %10, i32 0, i32 0
  %12 = load i16, ptr %11, align 8
  %13 = zext i16 %12 to i32
  %14 = getelementptr inbounds nuw %"struct.llvm::EVT", ptr %5, i32 0, i32 0
  %15 = getelementptr inbounds nuw %"class.llvm::MVT", ptr %14, i32 0, i32 0
  %16 = load i16, ptr %15, align 8
  %17 = zext i16 %16 to i32
  %18 = icmp ne i32 %13, %17
  br i1 %18, label %19, label %20

19:                                               ; preds = %3
  store i1 true, ptr %4, align 1
  br label %33

20:                                               ; preds = %3
  %21 = getelementptr inbounds nuw %"struct.llvm::EVT", ptr %9, i32 0, i32 0
  %22 = getelementptr inbounds nuw %"class.llvm::MVT", ptr %21, i32 0, i32 0
  %23 = load i16, ptr %22, align 8
  %24 = zext i16 %23 to i32
  %25 = icmp eq i32 %24, 0
  br i1 %25, label %26, label %32

26:                                               ; preds = %20
  %27 = getelementptr inbounds nuw %"struct.llvm::EVT", ptr %9, i32 0, i32 1
  %28 = load ptr, ptr %27, align 8
  %29 = getelementptr inbounds nuw %"struct.llvm::EVT", ptr %5, i32 0, i32 1
  %30 = load ptr, ptr %29, align 8
  %31 = icmp ne ptr %28, %30
  store i1 %31, ptr %4, align 1
  br label %33

32:                                               ; preds = %20
  store i1 false, ptr %4, align 1
  br label %33

33:                                               ; preds = %32, %26, %19
  %34 = load i1, ptr %4, align 1
  ret i1 %34
}

; Function Attrs: mustprogress nounwind uwtable
define linkonce_odr hidden void @_ZN4llvm3MVTC2ENS0_15SimpleValueTypeE(ptr noundef nonnull align 2 dereferenceable(2) %0, i16 noundef zeroext %1) unnamed_addr #0 comdat align 2 {
  %3 = alloca ptr, align 8
  %4 = alloca i16, align 2
  store ptr %0, ptr %3, align 8
  store i16 %1, ptr %4, align 2
  %5 = load ptr, ptr %3, align 8
  %6 = getelementptr inbounds nuw %"class.llvm::MVT", ptr %5, i32 0, i32 0
  %7 = load i16, ptr %4, align 2
  store i16 %7, ptr %6, align 2
  ret void
}

; Function Attrs: mustprogress nounwind uwtable
define linkonce_odr hidden noundef zeroext i1 @_ZNK4llvm3EVTeqES0_(ptr noundef nonnull align 8 dereferenceable(16) %0, i16 %1, ptr %2) #0 comdat align 2 {
  %4 = alloca %"struct.llvm::EVT", align 8
  %5 = alloca ptr, align 8
  %6 = alloca %"struct.llvm::EVT", align 8
  %7 = getelementptr inbounds nuw { i16, ptr }, ptr %4, i32 0, i32 0
  store i16 %1, ptr %7, align 8
  %8 = getelementptr inbounds nuw { i16, ptr }, ptr %4, i32 0, i32 1
  store ptr %2, ptr %8, align 8
  store ptr %0, ptr %5, align 8
  %9 = load ptr, ptr %5, align 8
  call void @llvm.memcpy.p0.p0.i64(ptr align 8 %6, ptr align 8 %4, i64 16, i1 false)
  %10 = getelementptr inbounds nuw { i16, ptr }, ptr %6, i32 0, i32 0
  %11 = load i16, ptr %10, align 8
  %12 = getelementptr inbounds nuw { i16, ptr }, ptr %6, i32 0, i32 1
  %13 = load ptr, ptr %12, align 8
  %14 = call noundef zeroext i1 @_ZNK4llvm3EVTneES0_(ptr noundef nonnull align 8 dereferenceable(16) %9, i16 %11, ptr %13)
  %15 = xor i1 %14, true
  ret i1 %15
}

; Function Attrs: mustprogress nounwind uwtable
define linkonce_odr hidden void @_ZN4llvm3EVTC2ENS_3MVT15SimpleValueTypeE(ptr noundef nonnull align 8 dereferenceable(16) %0, i16 noundef zeroext %1) unnamed_addr #0 comdat align 2 {
  %3 = alloca ptr, align 8
  %4 = alloca i16, align 2
  store ptr %0, ptr %3, align 8
  store i16 %1, ptr %4, align 2
  %5 = load ptr, ptr %3, align 8
  %6 = getelementptr inbounds nuw %"struct.llvm::EVT", ptr %5, i32 0, i32 0
  %7 = load i16, ptr %4, align 2
  call void @_ZN4llvm3MVTC2ENS0_15SimpleValueTypeE(ptr noundef nonnull align 2 dereferenceable(2) %6, i16 noundef zeroext %7)
  %8 = getelementptr inbounds nuw %"struct.llvm::EVT", ptr %5, i32 0, i32 1
  store ptr null, ptr %8, align 8
  ret void
}

; Function Attrs: mustprogress nounwind uwtable
define internal noundef i32 @_ZL12GetFPLibCallN4llvm3EVTENS_5RTLIB7LibcallES2_S2_S2_S2_(i16 %0, ptr %1, i32 noundef %2, i32 noundef %3, i32 noundef %4, i32 noundef %5, i32 noundef %6) #0 {
  %8 = alloca %"struct.llvm::EVT", align 8
  %9 = alloca i32, align 4
  %10 = alloca i32, align 4
  %11 = alloca i32, align 4
  %12 = alloca i32, align 4
  %13 = alloca i32, align 4
  %14 = alloca %"struct.llvm::EVT", align 8
  %15 = alloca %"struct.llvm::EVT", align 8
  %16 = alloca %"struct.llvm::EVT", align 8
  %17 = alloca %"struct.llvm::EVT", align 8
  %18 = alloca %"struct.llvm::EVT", align 8
  %19 = getelementptr inbounds nuw { i16, ptr }, ptr %8, i32 0, i32 0
  store i16 %0, ptr %19, align 8
  %20 = getelementptr inbounds nuw { i16, ptr }, ptr %8, i32 0, i32 1
  store ptr %1, ptr %20, align 8
  store i32 %2, ptr %9, align 4
  store i32 %3, ptr %10, align 4
  store i32 %4, ptr %11, align 4
  store i32 %5, ptr %12, align 4
  store i32 %6, ptr %13, align 4
  call void @_ZN4llvm3EVTC2ENS_3MVT15SimpleValueTypeE(ptr noundef nonnull align 8 dereferenceable(16) %14, i16 noundef zeroext 12)
  %21 = getelementptr inbounds nuw { i16, ptr }, ptr %14, i32 0, i32 0
  %22 = load i16, ptr %21, align 8
  %23 = getelementptr inbounds nuw { i16, ptr }, ptr %14, i32 0, i32 1
  %24 = load ptr, ptr %23, align 8
  %25 = call noundef zeroext i1 @_ZNK4llvm3EVTeqES0_(ptr noundef nonnull align 8 dereferenceable(16) %8, i16 %22, ptr %24)
  br i1 %25, label %26, label %28

26:                                               ; preds = %7
  %27 = load i32, ptr %9, align 4
  br label %69

28:                                               ; preds = %7
  call void @_ZN4llvm3EVTC2ENS_3MVT15SimpleValueTypeE(ptr noundef nonnull align 8 dereferenceable(16) %15, i16 noundef zeroext 13)
  %29 = getelementptr inbounds nuw { i16, ptr }, ptr %15, i32 0, i32 0
  %30 = load i16, ptr %29, align 8
  %31 = getelementptr inbounds nuw { i16, ptr }, ptr %15, i32 0, i32 1
  %32 = load ptr, ptr %31, align 8
  %33 = call noundef zeroext i1 @_ZNK4llvm3EVTeqES0_(ptr noundef nonnull align 8 dereferenceable(16) %8, i16 %30, ptr %32)
  br i1 %33, label %34, label %36

34:                                               ; preds = %28
  %35 = load i32, ptr %10, align 4
  br label %67

36:                                               ; preds = %28
  call void @_ZN4llvm3EVTC2ENS_3MVT15SimpleValueTypeE(ptr noundef nonnull align 8 dereferenceable(16) %16, i16 noundef zeroext 14)
  %37 = getelementptr inbounds nuw { i16, ptr }, ptr %16, i32 0, i32 0
  %38 = load i16, ptr %37, align 8
  %39 = getelementptr inbounds nuw { i16, ptr }, ptr %16, i32 0, i32 1
  %40 = load ptr, ptr %39, align 8
  %41 = call noundef zeroext i1 @_ZNK4llvm3EVTeqES0_(ptr noundef nonnull align 8 dereferenceable(16) %8, i16 %38, ptr %40)
  br i1 %41, label %42, label %44

42:                                               ; preds = %36
  %43 = load i32, ptr %11, align 4
  br label %65

44:                                               ; preds = %36
  call void @_ZN4llvm3EVTC2ENS_3MVT15SimpleValueTypeE(ptr noundef nonnull align 8 dereferenceable(16) %17, i16 noundef zeroext 15)
  %45 = getelementptr inbounds nuw { i16, ptr }, ptr %17, i32 0, i32 0
  %46 = load i16, ptr %45, align 8
  %47 = getelementptr inbounds nuw { i16, ptr }, ptr %17, i32 0, i32 1
  %48 = load ptr, ptr %47, align 8
  %49 = call noundef zeroext i1 @_ZNK4llvm3EVTeqES0_(ptr noundef nonnull align 8 dereferenceable(16) %8, i16 %46, ptr %48)
  br i1 %49, label %50, label %52

50:                                               ; preds = %44
  %51 = load i32, ptr %12, align 4
  br label %63

52:                                               ; preds = %44
  call void @_ZN4llvm3EVTC2ENS_3MVT15SimpleValueTypeE(ptr noundef nonnull align 8 dereferenceable(16) %18, i16 noundef zeroext 16)
  %53 = getelementptr inbounds nuw { i16, ptr }, ptr %18, i32 0, i32 0
  %54 = load i16, ptr %53, align 8
  %55 = getelementptr inbounds nuw { i16, ptr }, ptr %18, i32 0, i32 1
  %56 = load ptr, ptr %55, align 8
  %57 = call noundef zeroext i1 @_ZNK4llvm3EVTeqES0_(ptr noundef nonnull align 8 dereferenceable(16) %8, i16 %54, ptr %56)
  br i1 %57, label %58, label %60

58:                                               ; preds = %52
  %59 = load i32, ptr %13, align 4
  br label %61

60:                                               ; preds = %52
  br label %61

61:                                               ; preds = %60, %58
  %62 = phi i32 [ %59, %58 ], [ 700, %60 ]
  br label %63

63:                                               ; preds = %61, %50
  %64 = phi i32 [ %51, %50 ], [ %62, %61 ]
  br label %65

65:                                               ; preds = %63, %42
  %66 = phi i32 [ %43, %42 ], [ %64, %63 ]
  br label %67

67:                                               ; preds = %65, %34
  %68 = phi i32 [ %35, %34 ], [ %66, %65 ]
  br label %69

69:                                               ; preds = %67, %26
  %70 = phi i32 [ %27, %26 ], [ %68, %67 ]
  ret i32 %70
}

; Function Attrs: mustprogress nounwind uwtable
define linkonce_odr hidden { i16, ptr } @_ZNK4llvm6SDNode12getValueTypeEj(ptr noundef nonnull align 8 dereferenceable(88) %0, i32 noundef %1) #0 comdat align 2 {
  %3 = alloca %"struct.llvm::EVT", align 8
  %4 = alloca ptr, align 8
  %5 = alloca i32, align 4
  store ptr %0, ptr %4, align 8
  store i32 %1, ptr %5, align 4
  %6 = load ptr, ptr %4, align 8
  %7 = getelementptr inbounds nuw %"class.llvm::SDNode", ptr %6, i32 0, i32 8
  %8 = load ptr, ptr %7, align 8
  %9 = load i32, ptr %5, align 4
  %10 = zext i32 %9 to i64
  %11 = getelementptr inbounds %"struct.llvm::EVT", ptr %8, i64 %10
  call void @llvm.memcpy.p0.p0.i64(ptr align 8 %3, ptr align 8 %11, i64 16, i1 false)
  %12 = load { i16, ptr }, ptr %3, align 8
  ret { i16, ptr } %12
}

; Function Attrs: mustprogress nounwind uwtable
define hidden void @_ZN4llvm16DAGTypeLegalizer20ExpandFloatRes_FACOSEPNS_6SDNodeERNS_7SDValueES4_(ptr noundef nonnull align 8 dereferenceable(2512) %0, ptr noundef %1, ptr noundef nonnull align 8 dereferenceable(12) %2, ptr noundef nonnull align 8 dereferenceable(12) %3) #0 align 2 {
  %5 = alloca ptr, align 8
  %6 = alloca ptr, align 8
  %7 = alloca ptr, align 8
  %8 = alloca ptr, align 8
  %9 = alloca %"struct.llvm::EVT", align 8
  store ptr %0, ptr %5, align 8
  store ptr %1, ptr %6, align 8
  store ptr %2, ptr %7, align 8
  store ptr %3, ptr %8, align 8
  %10 = load ptr, ptr %5, align 8
  %11 = load ptr, ptr %6, align 8
  %12 = load ptr, ptr %6, align 8
  %13 = call { i16, ptr } @_ZNK4llvm6SDNode12getValueTypeEj(ptr noundef nonnull align 8 dereferenceable(88) %12, i32 noundef 0)
  %14 = getelementptr inbounds nuw { i16, ptr }, ptr %9, i32 0, i32 0
  %15 = extractvalue { i16, ptr } %13, 0
  store i16 %15, ptr %14, align 8
  %16 = getelementptr inbounds nuw { i16, ptr }, ptr %9, i32 0, i32 1
  %17 = extractvalue { i16, ptr } %13, 1
  store ptr %17, ptr %16, align 8
  %18 = getelementptr inbounds nuw { i16, ptr }, ptr %9, i32 0, i32 0
  %19 = load i16, ptr %18, align 8
  %20 = getelementptr inbounds nuw { i16, ptr }, ptr %9, i32 0, i32 1
  %21 = load ptr, ptr %20, align 8
  %22 = call noundef i32 @_ZL12GetFPLibCallN4llvm3EVTENS_5RTLIB7LibcallES2_S2_S2_S2_(i16 %19, ptr %21, i32 noundef 190, i32 noundef 191, i32 noundef 192, i32 noundef 193, i32 noundef 194)
  %23 = load ptr, ptr %7, align 8
  %24 = load ptr, ptr %8, align 8
  call void @_ZN4llvm16DAGTypeLegalizer20ExpandFloatRes_UnaryEPNS_6SDNodeENS_5RTLIB7LibcallERNS_7SDValueES6_(ptr noundef nonnull align 8 dereferenceable(2512) %10, ptr noundef %11, i32 noundef %22, ptr noundef nonnull align 8 dereferenceable(12) %23, ptr noundef nonnull align 8 dereferenceable(12) %24)
  ret void
}